target datalayout = "e-m:e-p270:32:32-p271:32:32-p272:64:64-i64:64-i128:128-f80:128-n8:16:32:64-S128"
target triple = "x86_64-pc-linux-gnu"

; Function Attrs: mustprogress nounwind uwtable
define void @_ZN4Cube15FactorFaceIndexEiRiS0_S0_(i32 noundef %0, ptr noundef nonnull align 4 dereferenceable(4) %1, ptr noundef nonnull align 4 dereferenceable(4) %2, ptr noundef nonnull align 4 dereferenceable(4) %3) #1 align 2 {
  %5 = alloca i32, align 4
  %6 = alloca ptr, align 8
  %7 = alloca ptr, align 8
  %8 = alloca ptr, align 8
  store i32 %0, ptr %5, align 4
  store ptr %1, ptr %6, align 8
  store ptr %2, ptr %7, align 8
  store ptr %3, ptr %8, align 8
  %9 = load ptr, ptr %8, align 8
  store i32 0, ptr %9, align 4
  %10 = load ptr, ptr %7, align 8
  store i32 0, ptr %10, align 4
  %11 = load ptr, ptr %6, align 8
  store i32 0, ptr %11, align 4
  %12 = load i32, ptr %5, align 4
  switch i32 %12, label %25 [
    i32 0, label %13
    i32 1, label %15
    i32 2, label %17
    i32 3, label %19
    i32 4, label %21
    i32 5, label %23
  ]

13:                                               ; preds = %4
  %14 = load ptr, ptr %6, align 8
  store i32 -1, ptr %14, align 4
  br label %25

15:                                               ; preds = %4
  %16 = load ptr, ptr %6, align 8
  store i32 1, ptr %16, align 4
  br label %25

17:                                               ; preds = %4
  %18 = load ptr, ptr %7, align 8
  store i32 -1, ptr %18, align 4
  br label %25

19:                                               ; preds = %4
  %20 = load ptr, ptr %7, align 8
  store i32 1, ptr %20, align 4
  br label %25

21:                                               ; preds = %4
  %22 = load ptr, ptr %8, align 8
  store i32 -1, ptr %22, align 4
  br label %25

23:                                               ; preds = %4
  %24 = load ptr, ptr %8, align 8
  store i32 1, ptr %24, align 4
  br label %25

25:                                               ; preds = %23, %21, %19, %17, %15, %13, %4
  ret void
}