; Function Attrs: mustprogress nofree norecurse nosync nounwind willreturn memory(argmem: write) uwtable
define void @_ZN4Cube15FactorFaceIndexEiRiS0_S0_(i32 noundef %0, ptr noundef nonnull writeonly align 4 captures(none) dereferenceable(4) initializes((0, 4)) %1, ptr noundef nonnull writeonly align 4 captures(none) dereferenceable(4) initializes((0, 4)) %2, ptr noundef nonnull writeonly align 4 captures(none) dereferenceable(4) initializes((0, 4)) %3) local_unnamed_addr #1 align 2 {
  store i32 0, ptr %3, align 4
  store i32 0, ptr %2, align 4
  store i32 0, ptr %1, align 4
  switch i32 %0, label %11 [
    i32 0, label %5
    i32 1, label %6
    i32 2, label %7
    i32 3, label %8
    i32 4, label %9
    i32 5, label %10
  ]

5:                                                ; preds = %4
  store i32 -1, ptr %1, align 4
  br label %11

6:                                                ; preds = %4
  store i32 1, ptr %1, align 4
  br label %11

7:                                                ; preds = %4
  store i32 -1, ptr %2, align 4
  br label %11

8:                                                ; preds = %4
  store i32 1, ptr %2, align 4
  br label %11

9:                                                ; preds = %4
  store i32 -1, ptr %3, align 4
  br label %11

10:                                               ; preds = %4
  store i32 1, ptr %3, align 4
  br label %11

11:                                               ; preds = %10, %9, %8, %7, %6, %5, %4
  ret void
}